; Function Attrs: nofree norecurse nosync nounwind memory(argmem: write) uwtable
define internal void @dc_127_16x16_c(ptr noundef writeonly captures(none) %0, i64 noundef %1, ptr readnone captures(none) %2, ptr readnone captures(none) %3) #5 {
  %5 = lshr i64 %1, 1
  br label %6

6:                                                ; preds = %4, %6
  %.015 = phi i32 [ 0, %4 ], [ %11, %6 ]
  %.01314 = phi ptr [ %0, %4 ], [ %10, %6 ]
  store i64 576188069258921983, ptr %.01314, align 8, !tbaa !12
  %7 = getelementptr inbounds nuw i8, ptr %.01314, i64 8
  store i64 576188069258921983, ptr %7, align 8, !tbaa !12
  %8 = getelementptr inbounds nuw i8, ptr %.01314, i64 16
  store i64 576188069258921983, ptr %8, align 8, !tbaa !12
  %9 = getelementptr inbounds nuw i8, ptr %.01314, i64 24
  store i64 576188069258921983, ptr %9, align 8, !tbaa !12
  %10 = getelementptr inbounds nuw i16, ptr %.01314, i64 %5
  %11 = add nuw nsw i32 %.015, 1
  %exitcond.not = icmp eq i32 %11, 16
  br i1 %exitcond.not, label %12, label %6, !llvm.loop !19

12:                                               ; preds = %6
  ret void
}